target datalayout = "e-m:e-p270:32:32-p271:32:32-p272:64:64-i64:64-i128:128-f80:128-n8:16:32:64-S128"
target triple = "x86_64-pc-linux-gnu"

; Function Attrs: nounwind uwtable
define internal ptr @legacy_query(ptr noundef %0, i32 noundef %1, ptr noundef %2) #0 {
  %4 = alloca ptr, align 8
  %5 = alloca ptr, align 8
  %6 = alloca i32, align 4
  %7 = alloca ptr, align 8
  store ptr %0, ptr %5, align 8, !tbaa !13
  store i32 %1, ptr %6, align 4, !tbaa !18
  store ptr %2, ptr %7, align 8, !tbaa !20
  %8 = load ptr, ptr %7, align 8, !tbaa !20
  store i32 0, ptr %8, align 4, !tbaa !18
  %9 = load i32, ptr %6, align 4, !tbaa !18
  switch i32 %9, label %13 [
    i32 1, label %10
    i32 2, label %11
    i32 4, label %12
  ]

10:                                               ; preds = %3
  store ptr @legacy_digests, ptr %4, align 8
  br label %14

11:                                               ; preds = %3
  store ptr @legacy_ciphers, ptr %4, align 8
  br label %14

12:                                               ; preds = %3
  store ptr @legacy_kdfs, ptr %4, align 8
  br label %14

13:                                               ; preds = %3
  store ptr null, ptr %4, align 8
  br label %14

14:                                               ; preds = %13, %12, %11, %10
  %15 = load ptr, ptr %4, align 8
  ret ptr %15
}